; Function Attrs: mustprogress uwtable
define void @_ZN7rocksdb15FileTraceReaderC2EOSt10unique_ptrINS_22RandomAccessFileReaderESt14default_deleteIS2_EE(ptr noundef nonnull align 8 dereferenceable(48) initializes((0, 40)) %0, ptr noundef nonnull align 8 captures(none) dereferenceable(8) %1) unnamed_addr #4 align 2 personality ptr @__gxx_personality_v0 {
  store ptr getelementptr inbounds nuw inrange(-16, 40) (i8, ptr @_ZTVN7rocksdb15FileTraceReaderE, i64 16), ptr %0, align 8, !tbaa !18
  %3 = getelementptr inbounds nuw i8, ptr %0, i64 8
  %4 = load i64, ptr %1, align 8, !tbaa !20
  store i64 %4, ptr %3, align 8, !tbaa !20
  store ptr null, ptr %1, align 8, !tbaa !20
  %5 = getelementptr inbounds nuw i8, ptr %0, i64 16
  store ptr @.str, ptr %5, align 8, !tbaa !22
  %6 = getelementptr inbounds nuw i8, ptr %0, i64 24
  tail call void @llvm.memset.p0.i64(ptr noundef nonnull align 8 dereferenceable(16) %6, i8 0, i64 16, i1 false)
  %7 = invoke noalias noundef nonnull dereferenceable(1024) ptr @_Znam(i64 noundef 1024) #21
          to label %8 unwind label %10

8:                                                ; preds = %2
  %9 = getelementptr inbounds nuw i8, ptr %0, i64 40
  store ptr %7, ptr %9, align 8, !tbaa !24
  ret void

10:                                               ; preds = %2
  %11 = landingpad { ptr, i32 }
          cleanup
  tail call void @_ZNSt10unique_ptrIN7rocksdb22RandomAccessFileReaderESt14default_deleteIS1_EED2Ev(ptr noundef nonnull align 8 dereferenceable(8) %3) #22
  resume { ptr, i32 } %11
}